target datalayout = "e-m:e-p270:32:32-p271:32:32-p272:64:64-i64:64-i128:128-f80:128-n8:16:32:64-S128"
target triple = "x86_64-pc-linux-gnu"

%"class.std::vector.11" = type { %"struct.std::_Vector_base.12" }
%"struct.std::_Vector_base.12" = type { %"struct.std::_Vector_base<int, std::allocator<int>>::_Vector_impl" }
%"struct.std::_Vector_base<int, std::allocator<int>>::_Vector_impl" = type { %"struct.std::_Vector_base<int, std::allocator<int>>::_Vector_impl_data" }
%"struct.std::_Vector_base<int, std::allocator<int>>::_Vector_impl_data" = type { ptr, ptr, ptr }
%"struct.Yosys::RTLIL::IdString" = type { i32 }
%"struct.Yosys::RTLIL::AttrObject" = type { %"class.Yosys::hashlib::dict.60" }
%"class.Yosys::hashlib::dict.60" = type <{ %"class.std::vector.11", %"class.std::vector.61", %"struct.Yosys::hashlib::hash_ops.66", [7 x i8] }>
%"class.std::vector.61" = type { %"struct.std::_Vector_base.62" }
%"struct.std::_Vector_base.62" = type { %"struct.std::_Vector_base<Yosys::hashlib::dict<Yosys::RTLIL::IdString, Yosys::RTLIL::Const>::entry_t, std::allocator<Yosys::hashlib::dict<Yosys::RTLIL::IdString, Yosys::RTLIL::Const>::entry_t>>::_Vector_impl" }
%"struct.std::_Vector_base<Yosys::hashlib::dict<Yosys::RTLIL::IdString, Yosys::RTLIL::Const>::entry_t, std::allocator<Yosys::hashlib::dict<Yosys::RTLIL::IdString, Yosys::RTLIL::Const>::entry_t>>::_Vector_impl" = type { %"struct.std::_Vector_base<Yosys::hashlib::dict<Yosys::RTLIL::IdString, Yosys::RTLIL::Const>::entry_t, std::allocator<Yosys::hashlib::dict<Yosys::RTLIL::IdString, Yosys::RTLIL::Const>::entry_t>>::_Vector_impl_data" }
%"struct.std::_Vector_base<Yosys::hashlib::dict<Yosys::RTLIL::IdString, Yosys::RTLIL::Const>::entry_t, std::allocator<Yosys::hashlib::dict<Yosys::RTLIL::IdString, Yosys::RTLIL::Const>::entry_t>>::_Vector_impl_data" = type { ptr, ptr, ptr }
%"struct.Yosys::hashlib::hash_ops.66" = type { i8 }
%"struct.Yosys::RTLIL::Module" = type { ptr, %"struct.Yosys::RTLIL::AttrObject", i32, ptr, %"class.Yosys::hashlib::pool", i32, i32, %"class.Yosys::hashlib::dict.74", %"class.Yosys::hashlib::dict.81", %"class.std::vector.88", %"class.std::vector.93", %"struct.Yosys::RTLIL::IdString", [4 x i8], %"class.Yosys::hashlib::idict", %"class.Yosys::hashlib::dict.60", %"class.Yosys::hashlib::dict.105", %"class.Yosys::hashlib::dict.112", %"class.std::vector.119" }
%"class.Yosys::hashlib::pool" = type <{ %"class.std::vector.11", %"class.std::vector.68", %"struct.Yosys::hashlib::hash_ops.73", [7 x i8] }>
%"class.std::vector.68" = type { %"struct.std::_Vector_base.69" }
%"struct.std::_Vector_base.69" = type { %"struct.std::_Vector_base<Yosys::hashlib::pool<Yosys::RTLIL::Monitor *>::entry_t, std::allocator<Yosys::hashlib::pool<Yosys::RTLIL::Monitor *>::entry_t>>::_Vector_impl" }
%"struct.std::_Vector_base<Yosys::hashlib::pool<Yosys::RTLIL::Monitor *>::entry_t, std::allocator<Yosys::hashlib::pool<Yosys::RTLIL::Monitor *>::entry_t>>::_Vector_impl" = type { %"struct.std::_Vector_base<Yosys::hashlib::pool<Yosys::RTLIL::Monitor *>::entry_t, std::allocator<Yosys::hashlib::pool<Yosys::RTLIL::Monitor *>::entry_t>>::_Vector_impl_data" }
%"struct.std::_Vector_base<Yosys::hashlib::pool<Yosys::RTLIL::Monitor *>::entry_t, std::allocator<Yosys::hashlib::pool<Yosys::RTLIL::Monitor *>::entry_t>>::_Vector_impl_data" = type { ptr, ptr, ptr }
%"struct.Yosys::hashlib::hash_ops.73" = type { i8 }
%"class.Yosys::hashlib::dict.74" = type <{ %"class.std::vector.11", %"class.std::vector.75", %"struct.Yosys::hashlib::hash_ops.66", [7 x i8] }>
%"class.std::vector.75" = type { %"struct.std::_Vector_base.76" }
%"struct.std::_Vector_base.76" = type { %"struct.std::_Vector_base<Yosys::hashlib::dict<Yosys::RTLIL::IdString, Yosys::RTLIL::Wire *>::entry_t, std::allocator<Yosys::hashlib::dict<Yosys::RTLIL::IdString, Yosys::RTLIL::Wire *>::entry_t>>::_Vector_impl" }
%"struct.std::_Vector_base<Yosys::hashlib::dict<Yosys::RTLIL::IdString, Yosys::RTLIL::Wire *>::entry_t, std::allocator<Yosys::hashlib::dict<Yosys::RTLIL::IdString, Yosys::RTLIL::Wire *>::entry_t>>::_Vector_impl" = type { %"struct.std::_Vector_base<Yosys::hashlib::dict<Yosys::RTLIL::IdString, Yosys::RTLIL::Wire *>::entry_t, std::allocator<Yosys::hashlib::dict<Yosys::RTLIL::IdString, Yosys::RTLIL::Wire *>::entry_t>>::_Vector_impl_data" }
%"struct.std::_Vector_base<Yosys::hashlib::dict<Yosys::RTLIL::IdString, Yosys::RTLIL::Wire *>::entry_t, std::allocator<Yosys::hashlib::dict<Yosys::RTLIL::IdString, Yosys::RTLIL::Wire *>::entry_t>>::_Vector_impl_data" = type { ptr, ptr, ptr }
%"class.Yosys::hashlib::dict.81" = type <{ %"class.std::vector.11", %"class.std::vector.82", %"struct.Yosys::hashlib::hash_ops.66", [7 x i8] }>
%"class.std::vector.82" = type { %"struct.std::_Vector_base.83" }
%"struct.std::_Vector_base.83" = type { %"struct.std::_Vector_base<Yosys::hashlib::dict<Yosys::RTLIL::IdString, Yosys::RTLIL::Cell *>::entry_t, std::allocator<Yosys::hashlib::dict<Yosys::RTLIL::IdString, Yosys::RTLIL::Cell *>::entry_t>>::_Vector_impl" }
%"struct.std::_Vector_base<Yosys::hashlib::dict<Yosys::RTLIL::IdString, Yosys::RTLIL::Cell *>::entry_t, std::allocator<Yosys::hashlib::dict<Yosys::RTLIL::IdString, Yosys::RTLIL::Cell *>::entry_t>>::_Vector_impl" = type { %"struct.std::_Vector_base<Yosys::hashlib::dict<Yosys::RTLIL::IdString, Yosys::RTLIL::Cell *>::entry_t, std::allocator<Yosys::hashlib::dict<Yosys::RTLIL::IdString, Yosys::RTLIL::Cell *>::entry_t>>::_Vector_impl_data" }
%"struct.std::_Vector_base<Yosys::hashlib::dict<Yosys::RTLIL::IdString, Yosys::RTLIL::Cell *>::entry_t, std::allocator<Yosys::hashlib::dict<Yosys::RTLIL::IdString, Yosys::RTLIL::Cell *>::entry_t>>::_Vector_impl_data" = type { ptr, ptr, ptr }
%"class.std::vector.88" = type { %"struct.std::_Vector_base.89" }
%"struct.std::_Vector_base.89" = type { %"struct.std::_Vector_base<std::pair<Yosys::RTLIL::SigSpec, Yosys::RTLIL::SigSpec>, std::allocator<std::pair<Yosys::RTLIL::SigSpec, Yosys::RTLIL::SigSpec>>>::_Vector_impl" }
%"struct.std::_Vector_base<std::pair<Yosys::RTLIL::SigSpec, Yosys::RTLIL::SigSpec>, std::allocator<std::pair<Yosys::RTLIL::SigSpec, Yosys::RTLIL::SigSpec>>>::_Vector_impl" = type { %"struct.std::_Vector_base<std::pair<Yosys::RTLIL::SigSpec, Yosys::RTLIL::SigSpec>, std::allocator<std::pair<Yosys::RTLIL::SigSpec, Yosys::RTLIL::SigSpec>>>::_Vector_impl_data" }
%"struct.std::_Vector_base<std::pair<Yosys::RTLIL::SigSpec, Yosys::RTLIL::SigSpec>, std::allocator<std::pair<Yosys::RTLIL::SigSpec, Yosys::RTLIL::SigSpec>>>::_Vector_impl_data" = type { ptr, ptr, ptr }
%"class.std::vector.93" = type { %"struct.std::_Vector_base.94" }
%"struct.std::_Vector_base.94" = type { %"struct.std::_Vector_base<Yosys::RTLIL::Binding *, std::allocator<Yosys::RTLIL::Binding *>>::_Vector_impl" }
%"struct.std::_Vector_base<Yosys::RTLIL::Binding *, std::allocator<Yosys::RTLIL::Binding *>>::_Vector_impl" = type { %"struct.std::_Vector_base<Yosys::RTLIL::Binding *, std::allocator<Yosys::RTLIL::Binding *>>::_Vector_impl_data" }
%"struct.std::_Vector_base<Yosys::RTLIL::Binding *, std::allocator<Yosys::RTLIL::Binding *>>::_Vector_impl_data" = type { ptr, ptr, ptr }
%"class.Yosys::hashlib::idict" = type { %"class.Yosys::hashlib::pool.98" }
%"class.Yosys::hashlib::pool.98" = type <{ %"class.std::vector.11", %"class.std::vector.99", %"struct.Yosys::hashlib::hash_ops.66", [7 x i8] }>
%"class.std::vector.99" = type { %"struct.std::_Vector_base.100" }
%"struct.std::_Vector_base.100" = type { %"struct.std::_Vector_base<Yosys::hashlib::pool<Yosys::RTLIL::IdString>::entry_t, std::allocator<Yosys::hashlib::pool<Yosys::RTLIL::IdString>::entry_t>>::_Vector_impl" }
%"struct.std::_Vector_base<Yosys::hashlib::pool<Yosys::RTLIL::IdString>::entry_t, std::allocator<Yosys::hashlib::pool<Yosys::RTLIL::IdString>::entry_t>>::_Vector_impl" = type { %"struct.std::_Vector_base<Yosys::hashlib::pool<Yosys::RTLIL::IdString>::entry_t, std::allocator<Yosys::hashlib::pool<Yosys::RTLIL::IdString>::entry_t>>::_Vector_impl_data" }
%"struct.std::_Vector_base<Yosys::hashlib::pool<Yosys::RTLIL::IdString>::entry_t, std::allocator<Yosys::hashlib::pool<Yosys::RTLIL::IdString>::entry_t>>::_Vector_impl_data" = type { ptr, ptr, ptr }
%"class.Yosys::hashlib::dict.105" = type <{ %"class.std::vector.11", %"class.std::vector.106", %"struct.Yosys::hashlib::hash_ops.66", [7 x i8] }>
%"class.std::vector.106" = type { %"struct.std::_Vector_base.107" }
%"struct.std::_Vector_base.107" = type { %"struct.std::_Vector_base<Yosys::hashlib::dict<Yosys::RTLIL::IdString, Yosys::RTLIL::Memory *>::entry_t, std::allocator<Yosys::hashlib::dict<Yosys::RTLIL::IdString, Yosys::RTLIL::Memory *>::entry_t>>::_Vector_impl" }
%"struct.std::_Vector_base<Yosys::hashlib::dict<Yosys::RTLIL::IdString, Yosys::RTLIL::Memory *>::entry_t, std::allocator<Yosys::hashlib::dict<Yosys::RTLIL::IdString, Yosys::RTLIL::Memory *>::entry_t>>::_Vector_impl" = type { %"struct.std::_Vector_base<Yosys::hashlib::dict<Yosys::RTLIL::IdString, Yosys::RTLIL::Memory *>::entry_t, std::allocator<Yosys::hashlib::dict<Yosys::RTLIL::IdString, Yosys::RTLIL::Memory *>::entry_t>>::_Vector_impl_data" }
%"struct.std::_Vector_base<Yosys::hashlib::dict<Yosys::RTLIL::IdString, Yosys::RTLIL::Memory *>::entry_t, std::allocator<Yosys::hashlib::dict<Yosys::RTLIL::IdString, Yosys::RTLIL::Memory *>::entry_t>>::_Vector_impl_data" = type { ptr, ptr, ptr }
%"class.Yosys::hashlib::dict.112" = type <{ %"class.std::vector.11", %"class.std::vector.113", %"struct.Yosys::hashlib::hash_ops.66", [7 x i8] }>
%"class.std::vector.113" = type { %"struct.std::_Vector_base.114" }
%"struct.std::_Vector_base.114" = type { %"struct.std::_Vector_base<Yosys::hashlib::dict<Yosys::RTLIL::IdString, Yosys::RTLIL::Process *>::entry_t, std::allocator<Yosys::hashlib::dict<Yosys::RTLIL::IdString, Yosys::RTLIL::Process *>::entry_t>>::_Vector_impl" }
%"struct.std::_Vector_base<Yosys::hashlib::dict<Yosys::RTLIL::IdString, Yosys::RTLIL::Process *>::entry_t, std::allocator<Yosys::hashlib::dict<Yosys::RTLIL::IdString, Yosys::RTLIL::Process *>::entry_t>>::_Vector_impl" = type { %"struct.std::_Vector_base<Yosys::hashlib::dict<Yosys::RTLIL::IdString, Yosys::RTLIL::Process *>::entry_t, std::allocator<Yosys::hashlib::dict<Yosys::RTLIL::IdString, Yosys::RTLIL::Process *>::entry_t>>::_Vector_impl_data" }
%"struct.std::_Vector_base<Yosys::hashlib::dict<Yosys::RTLIL::IdString, Yosys::RTLIL::Process *>::entry_t, std::allocator<Yosys::hashlib::dict<Yosys::RTLIL::IdString, Yosys::RTLIL::Process *>::entry_t>>::_Vector_impl_data" = type { ptr, ptr, ptr }
%"class.std::vector.119" = type { %"struct.std::_Vector_base.120" }
%"struct.std::_Vector_base.120" = type { %"struct.std::_Vector_base<Yosys::RTLIL::IdString, std::allocator<Yosys::RTLIL::IdString>>::_Vector_impl" }
%"struct.std::_Vector_base<Yosys::RTLIL::IdString, std::allocator<Yosys::RTLIL::IdString>>::_Vector_impl" = type { %"struct.std::_Vector_base<Yosys::RTLIL::IdString, std::allocator<Yosys::RTLIL::IdString>>::_Vector_impl_data" }
%"struct.std::_Vector_base<Yosys::RTLIL::IdString, std::allocator<Yosys::RTLIL::IdString>>::_Vector_impl_data" = type { ptr, ptr, ptr }
%"struct.Yosys::AST::AstModule" = type <{ %"struct.Yosys::RTLIL::Module", ptr, i8, i8, i8, i8, i8, i8, i8, i8, i8, i8, i8, [5 x i8] }>

@_ZN5Yosys5RTLIL8IdString24global_refcount_storage_E = external global %"class.std::vector.11", align 8
@_ZN5Yosys5RTLIL8IdString17destruct_guard_okE = external global i8, align 1

; Function Attrs: mustprogress nounwind uwtable
define linkonce_odr noundef nonnull align 4 dereferenceable(4) ptr @_ZNSt6vectorIiSaIiEEixEm(ptr noundef nonnull align 8 dereferenceable(24) %0, i64 noundef %1) #4 comdat align 2 {
  %3 = alloca ptr, align 8
  %4 = alloca i64, align 8
  store ptr %0, ptr %3, align 8
  store i64 %1, ptr %4, align 8
  %5 = load ptr, ptr %3, align 8
  %6 = getelementptr inbounds %"struct.std::_Vector_base.12", ptr %5, i32 0, i32 0
  %7 = getelementptr inbounds %"struct.std::_Vector_base<int, std::allocator<int>>::_Vector_impl_data", ptr %6, i32 0, i32 0
  %8 = load ptr, ptr %7, align 8
  %9 = load i64, ptr %4, align 8
  %10 = getelementptr inbounds i32, ptr %8, i64 %9
  ret ptr %10
}

; Function Attrs: mustprogress nounwind uwtable
define linkonce_odr noundef i32 @_ZN5Yosys5RTLIL8IdString13get_referenceEi(i32 noundef %0) #4 comdat align 2 {
  %2 = alloca i32, align 4
  store i32 %0, ptr %2, align 4
  %3 = load i32, ptr %2, align 4
  %4 = icmp ne i32 %3, 0
  br i1 %4, label %5, label %11

5:                                                ; preds = %1
  %6 = load i32, ptr %2, align 4
  %7 = sext i32 %6 to i64
  %8 = call noundef nonnull align 4 dereferenceable(4) ptr @_ZNSt6vectorIiSaIiEEixEm(ptr noundef nonnull align 8 dereferenceable(24) @_ZN5Yosys5RTLIL8IdString24global_refcount_storage_E, i64 noundef %7) #3
  %9 = load i32, ptr %8, align 4
  %10 = add nsw i32 %9, 1
  store i32 %10, ptr %8, align 4
  br label %11

11:                                               ; preds = %5, %1
  %12 = load i32, ptr %2, align 4
  ret i32 %12
}

; Function Attrs: mustprogress uwtable
define linkonce_odr void @_ZN5Yosys5RTLIL8IdString13put_referenceEi(i32 noundef %0) #5 comdat align 2 {
  %2 = alloca i32, align 4
  %3 = alloca ptr, align 8
  store i32 %0, ptr %2, align 4
  %4 = load i8, ptr @_ZN5Yosys5RTLIL8IdString17destruct_guard_okE, align 1
  %5 = trunc i8 %4 to i1
  br i1 %5, label %6, label %9

6:                                                ; preds = %1
  %7 = load i32, ptr %2, align 4
  %8 = icmp ne i32 %7, 0
  br i1 %8, label %10, label %9

9:                                                ; preds = %6, %1
  br label %23

10:                                               ; preds = %6
  %11 = load i32, ptr %2, align 4
  %12 = sext i32 %11 to i64
  %13 = call noundef nonnull align 4 dereferenceable(4) ptr @_ZNSt6vectorIiSaIiEEixEm(ptr noundef nonnull align 8 dereferenceable(24) @_ZN5Yosys5RTLIL8IdString24global_refcount_storage_E, i64 noundef %12) #3
  store ptr %13, ptr %3, align 8
  %14 = load ptr, ptr %3, align 8
  %15 = load i32, ptr %14, align 4
  %16 = add nsw i32 %15, -1
  store i32 %16, ptr %14, align 4
  %17 = icmp sgt i32 %16, 0
  br i1 %17, label %18, label %19

18:                                               ; preds = %10
  br label %23

19:                                               ; preds = %10
  br label %20

20:                                               ; preds = %19
  br label %21

21:                                               ; preds = %20
  %22 = load i32, ptr %2, align 4
  call void @_ZN5Yosys5RTLIL8IdString14free_referenceEi(i32 noundef %22)
  br label %23

23:                                               ; preds = %21, %18, %9
  ret void
}

; Function Attrs: mustprogress uwtable
define linkonce_odr void @_ZN5Yosys5RTLIL8IdStringaSERKS1_(ptr noundef nonnull align 4 dereferenceable(4) %0, ptr noundef nonnull align 4 dereferenceable(4) %1) #5 comdat align 2 {
  %3 = alloca ptr, align 8
  %4 = alloca ptr, align 8
  store ptr %0, ptr %3, align 8
  store ptr %1, ptr %4, align 8
  %5 = load ptr, ptr %3, align 8
  %6 = getelementptr inbounds %"struct.Yosys::RTLIL::IdString", ptr %5, i32 0, i32 0
  %7 = load i32, ptr %6, align 4
  call void @_ZN5Yosys5RTLIL8IdString13put_referenceEi(i32 noundef %7)
  %8 = load ptr, ptr %4, align 8
  %9 = getelementptr inbounds %"struct.Yosys::RTLIL::IdString", ptr %8, i32 0, i32 0
  %10 = load i32, ptr %9, align 4
  %11 = call noundef i32 @_ZN5Yosys5RTLIL8IdString13get_referenceEi(i32 noundef %10)
  %12 = getelementptr inbounds %"struct.Yosys::RTLIL::IdString", ptr %5, i32 0, i32 0
  store i32 %11, ptr %12, align 4
  ret void
}

; Function Attrs: mustprogress uwtable
define linkonce_odr void @_ZN5Yosys3AST9AstModuleC2Ev(ptr noundef nonnull align 8 dereferenceable(579) %0) unnamed_addr #5 comdat align 2 {
  %2 = alloca ptr, align 8
  store ptr %0, ptr %2, align 8
  %3 = load ptr, ptr %2, align 8
  call void @_ZN5Yosys5RTLIL6ModuleC2Ev(ptr noundef nonnull align 8 dereferenceable(560) %3)
  store ptr getelementptr inbounds ({ [14 x ptr] }, ptr @_ZTVN5Yosys3AST9AstModuleE, i32 0, i32 0, i32 2), ptr %3, align 8
  ret void
}

; Function Attrs: mustprogress uwtable
define noundef ptr @_ZNK5Yosys3AST9AstModule5cloneEv(ptr noundef nonnull align 8 dereferenceable(579) %0) unnamed_addr #5 align 2 personality ptr @__gxx_personality_v0 {
  %2 = alloca ptr, align 8
  %3 = alloca ptr, align 8
  %4 = alloca ptr, align 8
  %5 = alloca i32, align 4
  store ptr %0, ptr %2, align 8
  %6 = load ptr, ptr %2, align 8
  %7 = call noalias noundef nonnull ptr @_Znwm(i64 noundef 584) #21
  invoke void @_ZN5Yosys3AST9AstModuleC2Ev(ptr noundef nonnull align 8 dereferenceable(579) %7)
          to label %8 unwind label %85

8:                                                ; preds = %1
  store ptr %7, ptr %3, align 8
  %9 = getelementptr inbounds %"struct.Yosys::RTLIL::Module", ptr %6, i32 0, i32 11
  %10 = load ptr, ptr %3, align 8
  %11 = getelementptr inbounds %"struct.Yosys::RTLIL::Module", ptr %10, i32 0, i32 11
  call void @_ZN5Yosys5RTLIL8IdStringaSERKS1_(ptr noundef nonnull align 4 dereferenceable(4) %11, ptr noundef nonnull align 4 dereferenceable(4) %9)
  %12 = load ptr, ptr %3, align 8
  call void @_ZNK5Yosys5RTLIL6Module9cloneIntoEPS1_(ptr noundef nonnull align 8 dereferenceable(560) %6, ptr noundef %12)
  %13 = getelementptr inbounds %"struct.Yosys::AST::AstModule", ptr %6, i32 0, i32 1
  %14 = load ptr, ptr %13, align 8
  %15 = call noundef ptr @_ZNK5Yosys3AST7AstNode5cloneEv(ptr noundef nonnull align 8 dereferenceable(284) %14)
  %16 = load ptr, ptr %3, align 8
  %17 = getelementptr inbounds %"struct.Yosys::AST::AstModule", ptr %16, i32 0, i32 1
  store ptr %15, ptr %17, align 8
  %18 = getelementptr inbounds %"struct.Yosys::AST::AstModule", ptr %6, i32 0, i32 2
  %19 = load i8, ptr %18, align 8
  %20 = trunc i8 %19 to i1
  %21 = load ptr, ptr %3, align 8
  %22 = getelementptr inbounds %"struct.Yosys::AST::AstModule", ptr %21, i32 0, i32 2
  %23 = zext i1 %20 to i8
  store i8 %23, ptr %22, align 8
  %24 = getelementptr inbounds %"struct.Yosys::AST::AstModule", ptr %6, i32 0, i32 3
  %25 = load i8, ptr %24, align 1
  %26 = trunc i8 %25 to i1
  %27 = load ptr, ptr %3, align 8
  %28 = getelementptr inbounds %"struct.Yosys::AST::AstModule", ptr %27, i32 0, i32 3
  %29 = zext i1 %26 to i8
  store i8 %29, ptr %28, align 1
  %30 = getelementptr inbounds %"struct.Yosys::AST::AstModule", ptr %6, i32 0, i32 4
  %31 = load i8, ptr %30, align 2
  %32 = trunc i8 %31 to i1
  %33 = load ptr, ptr %3, align 8
  %34 = getelementptr inbounds %"struct.Yosys::AST::AstModule", ptr %33, i32 0, i32 4
  %35 = zext i1 %32 to i8
  store i8 %35, ptr %34, align 2
  %36 = getelementptr inbounds %"struct.Yosys::AST::AstModule", ptr %6, i32 0, i32 5
  %37 = load i8, ptr %36, align 1
  %38 = trunc i8 %37 to i1
  %39 = load ptr, ptr %3, align 8
  %40 = getelementptr inbounds %"struct.Yosys::AST::AstModule", ptr %39, i32 0, i32 5
  %41 = zext i1 %38 to i8
  store i8 %41, ptr %40, align 1
  %42 = getelementptr inbounds %"struct.Yosys::AST::AstModule", ptr %6, i32 0, i32 6
  %43 = load i8, ptr %42, align 4
  %44 = trunc i8 %43 to i1
  %45 = load ptr, ptr %3, align 8
  %46 = getelementptr inbounds %"struct.Yosys::AST::AstModule", ptr %45, i32 0, i32 6
  %47 = zext i1 %44 to i8
  store i8 %47, ptr %46, align 4
  %48 = getelementptr inbounds %"struct.Yosys::AST::AstModule", ptr %6, i32 0, i32 7
  %49 = load i8, ptr %48, align 1
  %50 = trunc i8 %49 to i1
  %51 = load ptr, ptr %3, align 8
  %52 = getelementptr inbounds %"struct.Yosys::AST::AstModule", ptr %51, i32 0, i32 7
  %53 = zext i1 %50 to i8
  store i8 %53, ptr %52, align 1
  %54 = getelementptr inbounds %"struct.Yosys::AST::AstModule", ptr %6, i32 0, i32 8
  %55 = load i8, ptr %54, align 2
  %56 = trunc i8 %55 to i1
  %57 = load ptr, ptr %3, align 8
  %58 = getelementptr inbounds %"struct.Yosys::AST::AstModule", ptr %57, i32 0, i32 8
  %59 = zext i1 %56 to i8
  store i8 %59, ptr %58, align 2
  %60 = getelementptr inbounds %"struct.Yosys::AST::AstModule", ptr %6, i32 0, i32 9
  %61 = load i8, ptr %60, align 1
  %62 = trunc i8 %61 to i1
  %63 = load ptr, ptr %3, align 8
  %64 = getelementptr inbounds %"struct.Yosys::AST::AstModule", ptr %63, i32 0, i32 9
  %65 = zext i1 %62 to i8
  store i8 %65, ptr %64, align 1
  %66 = getelementptr inbounds %"struct.Yosys::AST::AstModule", ptr %6, i32 0, i32 10
  %67 = load i8, ptr %66, align 8
  %68 = trunc i8 %67 to i1
  %69 = load ptr, ptr %3, align 8
  %70 = getelementptr inbounds %"struct.Yosys::AST::AstModule", ptr %69, i32 0, i32 10
  %71 = zext i1 %68 to i8
  store i8 %71, ptr %70, align 8
  %72 = getelementptr inbounds %"struct.Yosys::AST::AstModule", ptr %6, i32 0, i32 11
  %73 = load i8, ptr %72, align 1
  %74 = trunc i8 %73 to i1
  %75 = load ptr, ptr %3, align 8
  %76 = getelementptr inbounds %"struct.Yosys::AST::AstModule", ptr %75, i32 0, i32 11
  %77 = zext i1 %74 to i8
  store i8 %77, ptr %76, align 1
  %78 = getelementptr inbounds %"struct.Yosys::AST::AstModule", ptr %6, i32 0, i32 12
  %79 = load i8, ptr %78, align 2
  %80 = trunc i8 %79 to i1
  %81 = load ptr, ptr %3, align 8
  %82 = getelementptr inbounds %"struct.Yosys::AST::AstModule", ptr %81, i32 0, i32 12
  %83 = zext i1 %80 to i8
  store i8 %83, ptr %82, align 2
  %84 = load ptr, ptr %3, align 8
  ret ptr %84

85:                                               ; preds = %1
  %86 = landingpad { ptr, i32 }
          cleanup
  %87 = extractvalue { ptr, i32 } %86, 0
  store ptr %87, ptr %4, align 8
  %88 = extractvalue { ptr, i32 } %86, 1
  store i32 %88, ptr %5, align 4
  call void @_ZdlPv(ptr noundef %7) #22
  br label %89

89:                                               ; preds = %85
  %90 = load ptr, ptr %4, align 8
  %91 = load i32, ptr %5, align 4
  %92 = insertvalue { ptr, i32 } poison, ptr %90, 0
  %93 = insertvalue { ptr, i32 } %92, i32 %91, 1
  resume { ptr, i32 } %93
}