; Function Attrs: mustprogress uwtable
define noundef nonnull ptr @_ZNK5Yosys3AST9AstModule5cloneEv(ptr noundef nonnull align 8 dereferenceable(579) %0) unnamed_addr #4 align 2 personality ptr @__gxx_personality_v0 {
  %2 = tail call noalias noundef nonnull dereferenceable(584) ptr @_Znwm(i64 noundef 584) #36
  invoke void @_ZN5Yosys5RTLIL6ModuleC2Ev(ptr noundef nonnull align 8 dereferenceable(560) %2)
          to label %3 unwind label %46

3:                                                ; preds = %1
  store ptr getelementptr inbounds ({ [14 x ptr] }, ptr @_ZTVN5Yosys3AST9AstModuleE, i64 0, i32 0, i64 2), ptr %2, align 8
  %4 = getelementptr inbounds i8, ptr %0, i64 304
  %5 = getelementptr inbounds i8, ptr %2, i64 304
  %6 = load i32, ptr %5, align 4
  %7 = load i8, ptr @_ZN5Yosys5RTLIL8IdString17destruct_guard_okE, align 1
  %8 = and i8 %7, 1
  %9 = icmp ne i8 %8, 0
  %10 = icmp ne i32 %6, 0
  %or.cond.i.i = and i1 %10, %9
  br i1 %or.cond.i.i, label %11, label %_ZN5Yosys5RTLIL8IdString13put_referenceEi.exit.i

11:                                               ; preds = %3
  %12 = sext i32 %6 to i64
  %13 = load ptr, ptr @_ZN5Yosys5RTLIL8IdString24global_refcount_storage_E, align 8
  %14 = getelementptr inbounds i32, ptr %13, i64 %12
  %15 = load i32, ptr %14, align 4
  %16 = add nsw i32 %15, -1
  store i32 %16, ptr %14, align 4
  %17 = icmp sgt i32 %15, 1
  br i1 %17, label %_ZN5Yosys5RTLIL8IdString13put_referenceEi.exit.i, label %18

18:                                               ; preds = %11
  tail call void @_ZN5Yosys5RTLIL8IdString14free_referenceEi(i32 noundef %6)
  br label %_ZN5Yosys5RTLIL8IdString13put_referenceEi.exit.i

_ZN5Yosys5RTLIL8IdString13put_referenceEi.exit.i: ; preds = %18, %11, %3
  %19 = load i32, ptr %4, align 8
  %.not.i.i = icmp eq i32 %19, 0
  br i1 %.not.i.i, label %_ZN5Yosys5RTLIL8IdStringaSERKS1_.exit, label %20

20:                                               ; preds = %_ZN5Yosys5RTLIL8IdString13put_referenceEi.exit.i
  %21 = sext i32 %19 to i64
  %22 = load ptr, ptr @_ZN5Yosys5RTLIL8IdString24global_refcount_storage_E, align 8
  %23 = getelementptr inbounds i32, ptr %22, i64 %21
  %24 = load i32, ptr %23, align 4
  %25 = add nsw i32 %24, 1
  store i32 %25, ptr %23, align 4
  br label %_ZN5Yosys5RTLIL8IdStringaSERKS1_.exit

_ZN5Yosys5RTLIL8IdStringaSERKS1_.exit:            ; preds = %_ZN5Yosys5RTLIL8IdString13put_referenceEi.exit.i, %20
  store i32 %19, ptr %5, align 4
  tail call void @_ZNK5Yosys5RTLIL6Module9cloneIntoEPS1_(ptr noundef nonnull align 8 dereferenceable(560) %0, ptr noundef nonnull %2)
  %26 = getelementptr inbounds i8, ptr %0, i64 560
  %27 = load ptr, ptr %26, align 8
  %28 = tail call noundef ptr @_ZNK5Yosys3AST7AstNode5cloneEv(ptr noundef nonnull align 8 dereferenceable(284) %27)
  %29 = getelementptr inbounds i8, ptr %2, i64 560
  store ptr %28, ptr %29, align 8
  %30 = getelementptr inbounds i8, ptr %0, i64 568
  %31 = getelementptr inbounds i8, ptr %2, i64 568
  %32 = load <8 x i8>, ptr %30, align 8
  %33 = and <8 x i8> %32, <i8 1, i8 1, i8 1, i8 1, i8 1, i8 1, i8 1, i8 1>
  store <8 x i8> %33, ptr %31, align 8
  %34 = getelementptr inbounds i8, ptr %0, i64 576
  %35 = load i8, ptr %34, align 8
  %36 = and i8 %35, 1
  %37 = getelementptr inbounds i8, ptr %2, i64 576
  store i8 %36, ptr %37, align 8
  %38 = getelementptr inbounds i8, ptr %0, i64 577
  %39 = load i8, ptr %38, align 1
  %40 = and i8 %39, 1
  %41 = getelementptr inbounds i8, ptr %2, i64 577
  store i8 %40, ptr %41, align 1
  %42 = getelementptr inbounds i8, ptr %0, i64 578
  %43 = load i8, ptr %42, align 2
  %44 = and i8 %43, 1
  %45 = getelementptr inbounds i8, ptr %2, i64 578
  store i8 %44, ptr %45, align 2
  ret ptr %2

46:                                               ; preds = %1
  %47 = landingpad { ptr, i32 }
          cleanup
  tail call void @_ZdlPv(ptr noundef nonnull %2) #33
  resume { ptr, i32 } %47
}